target datalayout = "e-m:e-p270:32:32-p271:32:32-p272:64:64-i64:64-i128:128-f80:128-n8:16:32:64-S128"
target triple = "x86_64-pc-linux-gnu"

%struct.rb_code_location_struct = type { %struct.rb_code_position_struct, %struct.rb_code_position_struct }
%struct.rb_code_position_struct = type { i32, i32 }
%struct.lex_context = type { i16, [2 x i8] }
%struct.parser_params = type { ptr, ptr, %struct.anon.12, i64, i64, i32, i32, i32, i32, i32, ptr, ptr, ptr, ptr, i32, i32, ptr, i64, ptr, ptr, ptr, ptr, i64, i64, %struct.anon.13, ptr, i32, ptr, i32, i64, %struct.lex_context, ptr, ptr, ptr, i32, i64, ptr, ptr, i32, ptr }
%struct.anon.12 = type { ptr, ptr, ptr, %struct.parser_string_buffer, ptr, ptr, ptr, ptr, ptr, ptr, i32, i32, i32, i32 }
%struct.parser_string_buffer = type { ptr, ptr }
%struct.anon.13 = type { ptr, i32, i32, i32, i32 }
%struct.RNode = type { i64, %struct.rb_code_location_struct, i32 }
%struct.RNode_LIST = type { %struct.RNode, ptr, %union.anon.15, ptr }
%union.anon.15 = type { i64 }
%struct.RNode_SYM = type { %struct.RNode, ptr }
%struct.RNode_DSTR = type { %struct.RNode, ptr, %union.anon.22, ptr }
%union.anon.22 = type { i64 }

; Function Attrs: nounwind sspstrong uwtable
define internal i32 @parser_get_node_id(ptr noundef %0) #0 {
  %2 = alloca ptr, align 8
  %3 = alloca i32, align 4
  store ptr %0, ptr %2, align 8, !tbaa !7
  call void @llvm.lifetime.start.p0(i64 4, ptr %3) #26
  %4 = load ptr, ptr %2, align 8, !tbaa !7
  %5 = getelementptr inbounds nuw %struct.parser_params, ptr %4, i32 0, i32 26
  %6 = load i32, ptr %5, align 8, !tbaa !575
  store i32 %6, ptr %3, align 4, !tbaa !34
  %7 = load ptr, ptr %2, align 8, !tbaa !7
  %8 = getelementptr inbounds nuw %struct.parser_params, ptr %7, i32 0, i32 26
  %9 = load i32, ptr %8, align 8, !tbaa !575
  %10 = add i32 %9, 1
  store i32 %10, ptr %8, align 8, !tbaa !575
  %11 = load i32, ptr %3, align 4, !tbaa !34
  call void @llvm.lifetime.end.p0(i64 4, ptr %3) #26
  ret i32 %11
}

; Function Attrs: nounwind sspstrong uwtable
define internal ptr @node_new_internal(ptr noundef %0, i32 noundef %1, i64 noundef %2, i64 noundef %3) #0 {
  %5 = alloca ptr, align 8
  %6 = alloca i32, align 4
  %7 = alloca i64, align 8
  %8 = alloca i64, align 8
  %9 = alloca ptr, align 8
  store ptr %0, ptr %5, align 8, !tbaa !7
  store i32 %1, ptr %6, align 4, !tbaa !34
  store i64 %2, ptr %7, align 8, !tbaa !12
  store i64 %3, ptr %8, align 8, !tbaa !12
  call void @llvm.lifetime.start.p0(i64 8, ptr %9) #26
  %10 = load ptr, ptr %5, align 8, !tbaa !7
  %11 = getelementptr inbounds nuw %struct.parser_params, ptr %10, i32 0, i32 25
  %12 = load ptr, ptr %11, align 8, !tbaa !107
  %13 = load i32, ptr %6, align 4, !tbaa !34
  %14 = load i64, ptr %7, align 8, !tbaa !12
  %15 = load i64, ptr %8, align 8, !tbaa !12
  %16 = call ptr @rb_ast_newnode(ptr noundef %12, i32 noundef %13, i64 noundef %14, i64 noundef %15)
  store ptr %16, ptr %9, align 8, !tbaa !65
  %17 = load ptr, ptr %9, align 8, !tbaa !65
  %18 = load i32, ptr %6, align 4, !tbaa !34
  call void @rb_node_init(ptr noundef %17, i32 noundef %18)
  %19 = load ptr, ptr %9, align 8, !tbaa !65
  call void @llvm.lifetime.end.p0(i64 8, ptr %9) #26
  ret ptr %19
}

; Function Attrs: inlinehint nounwind sspstrong uwtable
define internal void @nd_set_line(ptr noundef %0, i64 noundef %1) #2 {
  %3 = alloca ptr, align 8
  %4 = alloca i64, align 8
  store ptr %0, ptr %3, align 8, !tbaa !65
  store i64 %1, ptr %4, align 8, !tbaa !12
  %5 = load ptr, ptr %3, align 8, !tbaa !65
  %6 = getelementptr inbounds nuw %struct.RNode, ptr %5, i32 0, i32 0
  %7 = load i64, ptr %6, align 8, !tbaa !110
  %8 = and i64 %7, 32767
  store i64 %8, ptr %6, align 8, !tbaa !110
  %9 = load i64, ptr %4, align 8, !tbaa !12
  %10 = and i64 %9, 562949953421311
  %11 = shl i64 %10, 15
  %12 = load ptr, ptr %3, align 8, !tbaa !65
  %13 = getelementptr inbounds nuw %struct.RNode, ptr %12, i32 0, i32 0
  %14 = load i64, ptr %13, align 8, !tbaa !110
  %15 = or i64 %14, %11
  store i64 %15, ptr %13, align 8, !tbaa !110
  ret void
}

; Function Attrs: nounwind sspstrong uwtable
define internal ptr @node_newnode(ptr noundef %0, i32 noundef %1, i64 noundef %2, i64 noundef %3, ptr noundef %4) #0 {
  %6 = alloca ptr, align 8
  %7 = alloca i32, align 4
  %8 = alloca i64, align 8
  %9 = alloca i64, align 8
  %10 = alloca ptr, align 8
  %11 = alloca ptr, align 8
  store ptr %0, ptr %6, align 8, !tbaa !7
  store i32 %1, ptr %7, align 4, !tbaa !34
  store i64 %2, ptr %8, align 8, !tbaa !12
  store i64 %3, ptr %9, align 8, !tbaa !12
  store ptr %4, ptr %10, align 8, !tbaa !39
  call void @llvm.lifetime.start.p0(i64 8, ptr %11) #26
  %12 = load ptr, ptr %6, align 8, !tbaa !7
  %13 = load i32, ptr %7, align 4, !tbaa !34
  %14 = load i64, ptr %8, align 8, !tbaa !12
  %15 = load i64, ptr %9, align 8, !tbaa !12
  %16 = call ptr @node_new_internal(ptr noundef %12, i32 noundef %13, i64 noundef %14, i64 noundef %15)
  store ptr %16, ptr %11, align 8, !tbaa !65
  %17 = load ptr, ptr %11, align 8, !tbaa !65
  %18 = load ptr, ptr %10, align 8, !tbaa !39
  %19 = call ptr @nd_set_loc(ptr noundef %17, ptr noundef %18)
  %20 = load ptr, ptr %6, align 8, !tbaa !7
  %21 = call i32 @parser_get_node_id(ptr noundef %20)
  %22 = load ptr, ptr %11, align 8, !tbaa !65
  %23 = getelementptr inbounds nuw %struct.RNode, ptr %22, i32 0, i32 2
  store i32 %21, ptr %23, align 8, !tbaa !641
  %24 = load ptr, ptr %11, align 8, !tbaa !65
  call void @llvm.lifetime.end.p0(i64 8, ptr %11) #26
  ret ptr %24
}

; Function Attrs: nounwind sspstrong uwtable
define internal ptr @rb_node_dsym_new(ptr noundef %0, ptr noundef %1, i64 noundef %2, ptr noundef %3, ptr noundef %4) #0 {
  %6 = alloca ptr, align 8
  %7 = alloca ptr, align 8
  %8 = alloca i64, align 8
  %9 = alloca ptr, align 8
  %10 = alloca ptr, align 8
  %11 = alloca ptr, align 8
  store ptr %0, ptr %6, align 8, !tbaa !7
  store ptr %1, ptr %7, align 8, !tbaa !14
  store i64 %2, ptr %8, align 8, !tbaa !12
  store ptr %3, ptr %9, align 8, !tbaa !65
  store ptr %4, ptr %10, align 8, !tbaa !39
  call void @llvm.lifetime.start.p0(i64 8, ptr %11) #26
  %12 = load ptr, ptr %6, align 8, !tbaa !7
  %13 = load ptr, ptr %10, align 8, !tbaa !39
  %14 = call ptr @node_newnode(ptr noundef %12, i32 noundef 102, i64 noundef 56, i64 noundef 8, ptr noundef %13)
  store ptr %14, ptr %11, align 8, !tbaa !504
  %15 = load ptr, ptr %7, align 8, !tbaa !14
  %16 = load ptr, ptr %11, align 8, !tbaa !504
  %17 = getelementptr inbounds nuw %struct.RNode_DSTR, ptr %16, i32 0, i32 1
  store ptr %15, ptr %17, align 8, !tbaa !499
  %18 = load i64, ptr %8, align 8, !tbaa !12
  %19 = load ptr, ptr %11, align 8, !tbaa !504
  %20 = getelementptr inbounds nuw %struct.RNode_DSTR, ptr %19, i32 0, i32 2
  store i64 %18, ptr %20, align 8, !tbaa !27
  %21 = load ptr, ptr %9, align 8, !tbaa !65
  %22 = load ptr, ptr %11, align 8, !tbaa !504
  %23 = getelementptr inbounds nuw %struct.RNode_DSTR, ptr %22, i32 0, i32 3
  store ptr %21, ptr %23, align 8, !tbaa !501
  %24 = load ptr, ptr %11, align 8, !tbaa !504
  call void @llvm.lifetime.end.p0(i64 8, ptr %11) #26
  ret ptr %24
}

; Function Attrs: nounwind sspstrong uwtable
define internal ptr @rb_node_list_new(ptr noundef %0, ptr noundef %1, ptr noundef %2) #0 {
  %4 = alloca ptr, align 8
  %5 = alloca ptr, align 8
  %6 = alloca ptr, align 8
  %7 = alloca ptr, align 8
  store ptr %0, ptr %4, align 8, !tbaa !7
  store ptr %1, ptr %5, align 8, !tbaa !65
  store ptr %2, ptr %6, align 8, !tbaa !39
  call void @llvm.lifetime.start.p0(i64 8, ptr %7) #26
  %8 = load ptr, ptr %4, align 8, !tbaa !7
  %9 = load ptr, ptr %6, align 8, !tbaa !39
  %10 = call ptr @node_newnode(ptr noundef %8, i32 noundef 43, i64 noundef 56, i64 noundef 8, ptr noundef %9)
  store ptr %10, ptr %7, align 8, !tbaa !306
  %11 = load ptr, ptr %5, align 8, !tbaa !65
  %12 = load ptr, ptr %7, align 8, !tbaa !306
  %13 = getelementptr inbounds nuw %struct.RNode_LIST, ptr %12, i32 0, i32 1
  store ptr %11, ptr %13, align 8, !tbaa !157
  %14 = load ptr, ptr %7, align 8, !tbaa !306
  %15 = getelementptr inbounds nuw %struct.RNode_LIST, ptr %14, i32 0, i32 2
  store i64 1, ptr %15, align 8, !tbaa !27
  %16 = load ptr, ptr %7, align 8, !tbaa !306
  %17 = getelementptr inbounds nuw %struct.RNode_LIST, ptr %16, i32 0, i32 3
  store ptr null, ptr %17, align 8, !tbaa !159
  %18 = load ptr, ptr %7, align 8, !tbaa !306
  call void @llvm.lifetime.end.p0(i64 8, ptr %7) #26
  ret ptr %18
}

; Function Attrs: nounwind sspstrong uwtable
define internal ptr @nd_set_loc(ptr noundef %0, ptr noundef %1) #0 {
  %3 = alloca ptr, align 8
  %4 = alloca ptr, align 8
  store ptr %0, ptr %3, align 8, !tbaa !65
  store ptr %1, ptr %4, align 8, !tbaa !39
  %5 = load ptr, ptr %3, align 8, !tbaa !65
  %6 = getelementptr inbounds nuw %struct.RNode, ptr %5, i32 0, i32 1
  %7 = load ptr, ptr %4, align 8, !tbaa !39
  call void @llvm.memcpy.p0.p0.i64(ptr align 8 %6, ptr align 4 %7, i64 16, i1 false), !tbaa.struct !33
  %8 = load ptr, ptr %3, align 8, !tbaa !65
  %9 = load ptr, ptr %4, align 8, !tbaa !39
  %10 = getelementptr inbounds nuw %struct.rb_code_location_struct, ptr %9, i32 0, i32 0
  %11 = getelementptr inbounds nuw %struct.rb_code_position_struct, ptr %10, i32 0, i32 0
  %12 = load i32, ptr %11, align 4, !tbaa !173
  %13 = sext i32 %12 to i64
  call void @nd_set_line(ptr noundef %8, i64 noundef %13)
  %14 = load ptr, ptr %3, align 8, !tbaa !65
  ret ptr %14
}

; Function Attrs: nounwind sspstrong uwtable
define internal ptr @rb_node_sym_new(ptr noundef %0, i64 noundef %1, ptr noundef %2) #0 {
  %4 = alloca ptr, align 8
  %5 = alloca i64, align 8
  %6 = alloca ptr, align 8
  %7 = alloca ptr, align 8
  store ptr %0, ptr %4, align 8, !tbaa !7
  store i64 %1, ptr %5, align 8, !tbaa !12
  store ptr %2, ptr %6, align 8, !tbaa !39
  call void @llvm.lifetime.start.p0(i64 8, ptr %7) #26
  %8 = load ptr, ptr %4, align 8, !tbaa !7
  %9 = load ptr, ptr %6, align 8, !tbaa !39
  %10 = call ptr @node_newnode(ptr noundef %8, i32 noundef 101, i64 noundef 40, i64 noundef 8, ptr noundef %9)
  store ptr %10, ptr %7, align 8, !tbaa !317
  %11 = load ptr, ptr %4, align 8, !tbaa !7
  %12 = load i64, ptr %5, align 8, !tbaa !12
  %13 = call ptr @rb_str_to_parser_string(ptr noundef %11, i64 noundef %12)
  %14 = load ptr, ptr %7, align 8, !tbaa !317
  %15 = getelementptr inbounds nuw %struct.RNode_SYM, ptr %14, i32 0, i32 1
  store ptr %13, ptr %15, align 8, !tbaa !319
  %16 = load ptr, ptr %7, align 8, !tbaa !317
  call void @llvm.lifetime.end.p0(i64 8, ptr %7) #26
  ret ptr %16
}

; Function Attrs: nounwind sspstrong uwtable
define internal ptr @dsym_node(ptr noundef %0, ptr noundef %1, ptr noundef %2) #0 {
  %4 = alloca ptr, align 8
  %5 = alloca ptr, align 8
  %6 = alloca ptr, align 8
  %7 = alloca ptr, align 8
  store ptr %0, ptr %5, align 8, !tbaa !7
  store ptr %1, ptr %6, align 8, !tbaa !65
  store ptr %2, ptr %7, align 8, !tbaa !39
  %8 = load ptr, ptr %6, align 8, !tbaa !65
  %9 = icmp ne ptr %8, null
  br i1 %9, label %18, label %10

10:                                               ; preds = %3
  %11 = load ptr, ptr %5, align 8, !tbaa !7
  %12 = load ptr, ptr %5, align 8, !tbaa !7
  %13 = getelementptr inbounds nuw %struct.parser_params, ptr %12, i32 0, i32 18
  %14 = load ptr, ptr %13, align 8, !tbaa !148
  %15 = call i64 @rb_enc_str_new_static(ptr noundef null, i64 noundef 0, ptr noundef %14)
  %16 = load ptr, ptr %7, align 8, !tbaa !39
  %17 = call ptr @rb_node_sym_new(ptr noundef %11, i64 noundef %15, ptr noundef %16)
  store ptr %17, ptr %4, align 8
  br label %46

18:                                               ; preds = %3
  %19 = load ptr, ptr %6, align 8, !tbaa !65
  %20 = getelementptr inbounds nuw %struct.RNode, ptr %19, i32 0, i32 0
  %21 = load i64, ptr %20, align 8, !tbaa !110
  %22 = and i64 %21, 32512
  %23 = lshr i64 %22, 8
  %24 = trunc i64 %23 to i32
  switch i32 %24, label %36 [
    i32 64, label %25
    i32 63, label %31
  ]

25:                                               ; preds = %18
  %26 = load ptr, ptr %6, align 8, !tbaa !65
  %27 = call i64 @rb_node_set_type(ptr noundef %26, i32 noundef 102)
  %28 = load ptr, ptr %6, align 8, !tbaa !65
  %29 = load ptr, ptr %7, align 8, !tbaa !39
  %30 = call ptr @nd_set_loc(ptr noundef %28, ptr noundef %29)
  br label %44

31:                                               ; preds = %18
  %32 = load ptr, ptr %5, align 8, !tbaa !7
  %33 = load ptr, ptr %6, align 8, !tbaa !65
  %34 = load ptr, ptr %7, align 8, !tbaa !39
  %35 = call ptr @str_to_sym_node(ptr noundef %32, ptr noundef %33, ptr noundef %34)
  store ptr %35, ptr %6, align 8, !tbaa !65
  br label %44

36:                                               ; preds = %18
  %37 = load ptr, ptr %5, align 8, !tbaa !7
  %38 = load ptr, ptr %5, align 8, !tbaa !7
  %39 = load ptr, ptr %6, align 8, !tbaa !65
  %40 = load ptr, ptr %7, align 8, !tbaa !39
  %41 = call ptr @rb_node_list_new(ptr noundef %38, ptr noundef %39, ptr noundef %40)
  %42 = load ptr, ptr %7, align 8, !tbaa !39
  %43 = call ptr @rb_node_dsym_new(ptr noundef %37, ptr noundef null, i64 noundef 1, ptr noundef %41, ptr noundef %42)
  store ptr %43, ptr %6, align 8, !tbaa !65
  br label %44

44:                                               ; preds = %36, %31, %25
  %45 = load ptr, ptr %6, align 8, !tbaa !65
  store ptr %45, ptr %4, align 8
  br label %46

46:                                               ; preds = %44, %10
  %47 = load ptr, ptr %4, align 8
  ret ptr %47
}