; Function Attrs: nounwind sspstrong uwtable
define internal fastcc noundef ptr @dsym_node(ptr noundef captures(none) %0, ptr noundef %1, ptr noundef nonnull captures(address_is_null) %2) unnamed_addr #0 {
  %.not = icmp eq ptr %1, null
  br i1 %.not, label %4, label %23

4:                                                ; preds = %3
  %5 = getelementptr inbounds nuw i8, ptr %0, i64 216
  %6 = load ptr, ptr %5, align 8, !tbaa !172
  %7 = tail call i64 @rb_enc_str_new_static(ptr noundef null, i64 noundef 0, ptr noundef %6) #35
  %8 = getelementptr i8, ptr %0, i64 288
  %.val.i.i = load ptr, ptr %8, align 8, !tbaa !130
  %9 = tail call ptr @rb_ast_newnode(ptr noundef %.val.i.i, i32 noundef range(i32 0, 115) 101, i64 noundef range(i64 32, 129) 40, i64 noundef 8) #35
  tail call void @rb_node_init(ptr noundef %9, i32 noundef range(i32 0, 115) 101) #35
  %10 = getelementptr inbounds nuw i8, ptr %9, i64 8
  tail call void @llvm.memcpy.p0.p0.i64(ptr noundef nonnull align 8 dereferenceable(16) %10, ptr noundef nonnull readonly align 4 dereferenceable(16) %2, i64 16, i1 false), !tbaa.struct !59
  %11 = load i32, ptr %2, align 4, !tbaa !53
  %12 = sext i32 %11 to i64
  %13 = load i64, ptr %9, align 8, !tbaa !72
  %14 = and i64 %13, 32767
  %15 = shl nsw i64 %12, 15
  %16 = or disjoint i64 %14, %15
  store i64 %16, ptr %9, align 8, !tbaa !72
  %17 = getelementptr inbounds nuw i8, ptr %0, i64 296
  %18 = load i32, ptr %17, align 8, !tbaa !207
  %19 = add i32 %18, 1
  store i32 %19, ptr %17, align 8, !tbaa !207
  %20 = getelementptr inbounds nuw i8, ptr %9, i64 24
  store i32 %18, ptr %20, align 8, !tbaa !208
  %21 = tail call ptr @rb_str_to_parser_string(ptr poison, i64 noundef %7)
  %22 = getelementptr inbounds nuw i8, ptr %9, i64 32
  store ptr %21, ptr %22, align 8, !tbaa !337
  br label %71

23:                                               ; preds = %3
  %24 = load i64, ptr %1, align 8, !tbaa !72
  %25 = trunc i64 %24 to i32
  %26 = lshr i32 %25, 8
  %27 = and i32 %26, 127
  switch i32 %27, label %40 [
    i32 64, label %28
    i32 63, label %37
  ]

28:                                               ; preds = %23
  %29 = tail call i64 @rb_node_set_type(ptr noundef nonnull %1, i32 noundef 102) #35
  %30 = getelementptr inbounds nuw i8, ptr %1, i64 8
  tail call void @llvm.memcpy.p0.p0.i64(ptr noundef nonnull align 8 dereferenceable(16) %30, ptr noundef nonnull readonly align 4 dereferenceable(16) %2, i64 16, i1 false), !tbaa.struct !59
  %31 = load i32, ptr %2, align 4, !tbaa !53
  %32 = sext i32 %31 to i64
  %33 = load i64, ptr %1, align 8, !tbaa !72
  %34 = and i64 %33, 32767
  %35 = shl nsw i64 %32, 15
  %36 = or disjoint i64 %34, %35
  store i64 %36, ptr %1, align 8, !tbaa !72
  br label %71

37:                                               ; preds = %23
  %38 = getelementptr i8, ptr %1, i64 32
  %.val = load ptr, ptr %38, align 8, !tbaa !442
  %39 = tail call fastcc ptr @str_to_sym_node(ptr noundef %0, ptr %.val, ptr noundef nonnull %2)
  br label %71

40:                                               ; preds = %23
  %41 = getelementptr i8, ptr %0, i64 288
  %.val.i.i20 = load ptr, ptr %41, align 8, !tbaa !130
  %42 = tail call ptr @rb_ast_newnode(ptr noundef %.val.i.i20, i32 noundef range(i32 0, 115) 43, i64 noundef range(i64 32, 129) 56, i64 noundef 8) #35
  tail call void @rb_node_init(ptr noundef %42, i32 noundef range(i32 0, 115) 43) #35
  %43 = getelementptr inbounds nuw i8, ptr %42, i64 8
  tail call void @llvm.memcpy.p0.p0.i64(ptr noundef nonnull align 8 dereferenceable(16) %43, ptr noundef nonnull readonly align 4 dereferenceable(16) %2, i64 16, i1 false), !tbaa.struct !59
  %44 = load i32, ptr %2, align 4, !tbaa !53
  %45 = sext i32 %44 to i64
  %46 = load i64, ptr %42, align 8, !tbaa !72
  %47 = and i64 %46, 32767
  %48 = shl nsw i64 %45, 15
  %49 = or disjoint i64 %47, %48
  store i64 %49, ptr %42, align 8, !tbaa !72
  %50 = getelementptr inbounds nuw i8, ptr %0, i64 296
  %51 = load i32, ptr %50, align 8, !tbaa !207
  %52 = add i32 %51, 1
  store i32 %52, ptr %50, align 8, !tbaa !207
  %53 = getelementptr inbounds nuw i8, ptr %42, i64 24
  store i32 %51, ptr %53, align 8, !tbaa !208
  %54 = getelementptr inbounds nuw i8, ptr %42, i64 32
  store ptr %1, ptr %54, align 8, !tbaa !180
  %55 = getelementptr inbounds nuw i8, ptr %42, i64 40
  store i64 1, ptr %55, align 8, !tbaa !25
  %56 = getelementptr inbounds nuw i8, ptr %42, i64 48
  store ptr null, ptr %56, align 8, !tbaa !182
  %.val.i.i21 = load ptr, ptr %41, align 8, !tbaa !130
  %57 = tail call ptr @rb_ast_newnode(ptr noundef %.val.i.i21, i32 noundef range(i32 0, 115) 102, i64 noundef range(i64 32, 129) 56, i64 noundef 8) #35
  tail call void @rb_node_init(ptr noundef %57, i32 noundef range(i32 0, 115) 102) #35
  %58 = getelementptr inbounds nuw i8, ptr %57, i64 8
  tail call void @llvm.memcpy.p0.p0.i64(ptr noundef nonnull align 8 dereferenceable(16) %58, ptr noundef nonnull readonly align 4 dereferenceable(16) %2, i64 16, i1 false), !tbaa.struct !59
  %59 = load i32, ptr %2, align 4, !tbaa !53
  %60 = sext i32 %59 to i64
  %61 = load i64, ptr %57, align 8, !tbaa !72
  %62 = and i64 %61, 32767
  %63 = shl nsw i64 %60, 15
  %64 = or disjoint i64 %62, %63
  store i64 %64, ptr %57, align 8, !tbaa !72
  %65 = load i32, ptr %50, align 8, !tbaa !207
  %66 = add i32 %65, 1
  store i32 %66, ptr %50, align 8, !tbaa !207
  %67 = getelementptr inbounds nuw i8, ptr %57, i64 24
  store i32 %65, ptr %67, align 8, !tbaa !208
  %68 = getelementptr inbounds nuw i8, ptr %57, i64 32
  store ptr null, ptr %68, align 8, !tbaa !444
  %69 = getelementptr inbounds nuw i8, ptr %57, i64 40
  store i64 1, ptr %69, align 8, !tbaa !25
  %70 = getelementptr inbounds nuw i8, ptr %57, i64 48
  store ptr %42, ptr %70, align 8, !tbaa !447
  br label %71

71:                                               ; preds = %28, %37, %40, %4
  %.0 = phi ptr [ %9, %4 ], [ %57, %40 ], [ %39, %37 ], [ %1, %28 ]
  ret ptr %.0
}